ARM GAS  C:\Users\KOOMOO~1\AppData\Local\Temp\ccv2yNvZ.s 			page 1


   1              		.syntax unified
   2              		.cpu cortex-m3
   3              		.fpu softvfp
   4              		.eabi_attribute 20, 1
   5              		.eabi_attribute 21, 1
   6              		.eabi_attribute 23, 3
   7              		.eabi_attribute 24, 1
   8              		.eabi_attribute 25, 1
   9              		.eabi_attribute 26, 1
  10              		.eabi_attribute 30, 1
  11              		.eabi_attribute 34, 1
  12              		.eabi_attribute 18, 4
  13              		.thumb
  14              		.file	"Custom_Motor.c"
  15              		.text
  16              	.Ltext0:
  17              		.cfi_sections	.debug_frame
  18              		.section	.text.Custom_forward,"ax",%progbits
  19              		.align	2
  20              		.global	Custom_forward
  21              		.thumb
  22              		.thumb_func
  23              		.type	Custom_forward, %function
  24              	Custom_forward:
  25              	.LFB63:
  26              		.file 1 "Custom_Motor.c"
   1:Custom_Motor.c **** 
   2:Custom_Motor.c **** /**
   3:Custom_Motor.c ****  * @file    Custom_Motor.c
   4:Custom_Motor.c ****  * @brief   Custom file for defining motor movement functions.
   5:Custom_Motor.c **** */
   6:Custom_Motor.c **** 
   7:Custom_Motor.c **** #include <project.h>
   8:Custom_Motor.c **** #include <stdio.h>
   9:Custom_Motor.c **** #include "Motor.h"
  10:Custom_Motor.c **** 
  11:Custom_Motor.c **** void Custom_forward(uint8 speed);
  12:Custom_Motor.c **** void Custom_backward(uint8 speed);
  13:Custom_Motor.c **** void Turn(uint32 turn, int dir_flag);
  14:Custom_Motor.c **** void Ultrasharp_turn(uint32 delay, int dir_flag);
  15:Custom_Motor.c **** 
  16:Custom_Motor.c **** // Custom 'forward' function to calibrate the forward moving direction (default motor_forward() vee
  17:Custom_Motor.c **** // to the left due to the physical differences between the two motors).
  18:Custom_Motor.c **** // NOTE: The motors should always be stopped by using the default function, because this function 
  19:Custom_Motor.c **** // will leave the left motor running if used for that purpose!
  20:Custom_Motor.c **** void Custom_forward(uint8 speed)
  21:Custom_Motor.c **** {
  27              		.loc 1 21 0
  28              		.cfi_startproc
  29              		@ args = 0, pretend = 0, frame = 0
  30              		@ frame_needed = 0, uses_anonymous_args = 0
  31              	.LVL0:
  32 0000 10B5     		push	{r4, lr}
  33              		.cfi_def_cfa_offset 8
  34              		.cfi_offset 4, -8
  35              		.cfi_offset 14, -4
  36 0002 0446     		mov	r4, r0
ARM GAS  C:\Users\KOOMOO~1\AppData\Local\Temp\ccv2yNvZ.s 			page 2


  22:Custom_Motor.c ****     MotorDirLeft_Write(0); // set LeftMotor forward mode
  37              		.loc 1 22 0
  38 0004 0020     		movs	r0, #0
  39              	.LVL1:
  40 0006 FFF7FEFF 		bl	MotorDirLeft_Write
  41              	.LVL2:
  23:Custom_Motor.c ****     MotorDirRight_Write(0); // set RightMotor forward mode
  42              		.loc 1 23 0
  43 000a 0020     		movs	r0, #0
  44 000c FFF7FEFF 		bl	MotorDirRight_Write
  45              	.LVL3:
  24:Custom_Motor.c ****     PWM_WriteCompare1(speed + 15); 
  46              		.loc 1 24 0
  47 0010 04F10F00 		add	r0, r4, #15
  48 0014 C0B2     		uxtb	r0, r0
  49 0016 FFF7FEFF 		bl	PWM_WriteCompare1
  50              	.LVL4:
  25:Custom_Motor.c ****     PWM_WriteCompare2(speed);
  51              		.loc 1 25 0
  52 001a 2046     		mov	r0, r4
  53 001c FFF7FEFF 		bl	PWM_WriteCompare2
  54              	.LVL5:
  55 0020 10BD     		pop	{r4, pc}
  56              		.cfi_endproc
  57              	.LFE63:
  58              		.size	Custom_forward, .-Custom_forward
  59 0022 00BF     		.section	.text.Custom_backward,"ax",%progbits
  60              		.align	2
  61              		.global	Custom_backward
  62              		.thumb
  63              		.thumb_func
  64              		.type	Custom_backward, %function
  65              	Custom_backward:
  66              	.LFB64:
  26:Custom_Motor.c **** }
  27:Custom_Motor.c **** 
  28:Custom_Motor.c **** // Custom function for backward movement, similar to the forward function defined above.
  29:Custom_Motor.c **** void Custom_backward(uint8 speed)
  30:Custom_Motor.c **** {
  67              		.loc 1 30 0
  68              		.cfi_startproc
  69              		@ args = 0, pretend = 0, frame = 0
  70              		@ frame_needed = 0, uses_anonymous_args = 0
  71              	.LVL6:
  72 0000 10B5     		push	{r4, lr}
  73              		.cfi_def_cfa_offset 8
  74              		.cfi_offset 4, -8
  75              		.cfi_offset 14, -4
  76 0002 0446     		mov	r4, r0
  31:Custom_Motor.c ****     MotorDirLeft_Write(1); // set LeftMotor backward mode
  77              		.loc 1 31 0
  78 0004 0120     		movs	r0, #1
  79              	.LVL7:
  80 0006 FFF7FEFF 		bl	MotorDirLeft_Write
  81              	.LVL8:
  32:Custom_Motor.c ****     MotorDirRight_Write(1); // set RightMotor backward mode
  82              		.loc 1 32 0
ARM GAS  C:\Users\KOOMOO~1\AppData\Local\Temp\ccv2yNvZ.s 			page 3


  83 000a 0120     		movs	r0, #1
  84 000c FFF7FEFF 		bl	MotorDirRight_Write
  85              	.LVL9:
  33:Custom_Motor.c ****     PWM_WriteCompare1(speed + 15); 
  86              		.loc 1 33 0
  87 0010 04F10F00 		add	r0, r4, #15
  88 0014 C0B2     		uxtb	r0, r0
  89 0016 FFF7FEFF 		bl	PWM_WriteCompare1
  90              	.LVL10:
  34:Custom_Motor.c ****     PWM_WriteCompare2(speed);
  91              		.loc 1 34 0
  92 001a 2046     		mov	r0, r4
  93 001c FFF7FEFF 		bl	PWM_WriteCompare2
  94              	.LVL11:
  95 0020 10BD     		pop	{r4, pc}
  96              		.cfi_endproc
  97              	.LFE64:
  98              		.size	Custom_backward, .-Custom_backward
  99 0022 00BF     		.section	.text.Turn,"ax",%progbits
 100              		.align	2
 101              		.global	Turn
 102              		.thumb
 103              		.thumb_func
 104              		.type	Turn, %function
 105              	Turn:
 106              	.LFB65:
  35:Custom_Motor.c **** }
  36:Custom_Motor.c **** 
  37:Custom_Motor.c **** // A new turn function that takes direction as an argument.
  38:Custom_Motor.c **** // NOTE: the normalization of 'turn' within acceptable limits (0-240) is done in main.c, to make it
  39:Custom_Motor.c **** void Turn(uint32 turn, int dir_flag)
  40:Custom_Motor.c **** {   
 107              		.loc 1 40 0
 108              		.cfi_startproc
 109              		@ args = 0, pretend = 0, frame = 0
 110              		@ frame_needed = 0, uses_anonymous_args = 0
 111              	.LVL12:
 112 0000 08B5     		push	{r3, lr}
 113              		.cfi_def_cfa_offset 8
 114              		.cfi_offset 3, -8
 115              		.cfi_offset 14, -4
  41:Custom_Motor.c ****     if (dir_flag == 0) 
 116              		.loc 1 41 0
 117 0002 39B9     		cbnz	r1, .L6
  42:Custom_Motor.c ****     {
  43:Custom_Motor.c ****         // Turns left
  44:Custom_Motor.c ****         PWM_WriteCompare1(255 - turn); 
 118              		.loc 1 44 0
 119 0004 C043     		mvns	r0, r0
 120              	.LVL13:
 121 0006 C0B2     		uxtb	r0, r0
 122              	.LVL14:
 123 0008 FFF7FEFF 		bl	PWM_WriteCompare1
 124              	.LVL15:
  45:Custom_Motor.c ****         PWM_WriteCompare2(240);
 125              		.loc 1 45 0
 126 000c F020     		movs	r0, #240
ARM GAS  C:\Users\KOOMOO~1\AppData\Local\Temp\ccv2yNvZ.s 			page 4


 127 000e FFF7FEFF 		bl	PWM_WriteCompare2
 128              	.LVL16:
 129 0012 08BD     		pop	{r3, pc}
 130              	.LVL17:
 131              	.L6:
  46:Custom_Motor.c **** 
  47:Custom_Motor.c ****     }     
  48:Custom_Motor.c ****     else if (dir_flag == 1) {      
 132              		.loc 1 48 0
 133 0014 0129     		cmp	r1, #1
 134 0016 07D1     		bne	.L5
  49:Custom_Motor.c ****         
  50:Custom_Motor.c ****         // Turns right
  51:Custom_Motor.c ****         PWM_WriteCompare2(240 - turn); 
 135              		.loc 1 51 0
 136 0018 C0F1F000 		rsb	r0, r0, #240
 137              	.LVL18:
 138 001c C0B2     		uxtb	r0, r0
 139 001e FFF7FEFF 		bl	PWM_WriteCompare2
 140              	.LVL19:
  52:Custom_Motor.c ****         PWM_WriteCompare1(255);
 141              		.loc 1 52 0
 142 0022 FF20     		movs	r0, #255
 143 0024 FFF7FEFF 		bl	PWM_WriteCompare1
 144              	.LVL20:
 145              	.L5:
 146 0028 08BD     		pop	{r3, pc}
 147              		.cfi_endproc
 148              	.LFE65:
 149              		.size	Turn, .-Turn
 150 002a 00BF     		.section	.text.Ultrasharp_turn,"ax",%progbits
 151              		.align	2
 152              		.global	Ultrasharp_turn
 153              		.thumb
 154              		.thumb_func
 155              		.type	Ultrasharp_turn, %function
 156              	Ultrasharp_turn:
 157              	.LFB66:
  53:Custom_Motor.c ****         
  54:Custom_Motor.c ****     }
  55:Custom_Motor.c **** }
  56:Custom_Motor.c **** 
  57:Custom_Motor.c **** // Used in the sumo logic, to get away quickly from the black line. 
  58:Custom_Motor.c **** // Turns very fast (at max speed) by running the motors in opposite directions.
  59:Custom_Motor.c **** void Ultrasharp_turn(uint32 delay, int dir_flag)
  60:Custom_Motor.c **** {
 158              		.loc 1 60 0
 159              		.cfi_startproc
 160              		@ args = 0, pretend = 0, frame = 0
 161              		@ frame_needed = 0, uses_anonymous_args = 0
 162              	.LVL21:
 163 0000 10B5     		push	{r4, lr}
 164              		.cfi_def_cfa_offset 8
 165              		.cfi_offset 4, -8
 166              		.cfi_offset 14, -4
 167 0002 0446     		mov	r4, r0
  61:Custom_Motor.c ****     // left turn
ARM GAS  C:\Users\KOOMOO~1\AppData\Local\Temp\ccv2yNvZ.s 			page 5


  62:Custom_Motor.c ****     if (dir_flag == 0)
 168              		.loc 1 62 0
 169 0004 79B9     		cbnz	r1, .L10
  63:Custom_Motor.c ****     { 
  64:Custom_Motor.c ****         MotorDirLeft_Write(1);
 170              		.loc 1 64 0
 171 0006 0120     		movs	r0, #1
 172              	.LVL22:
 173 0008 FFF7FEFF 		bl	MotorDirLeft_Write
 174              	.LVL23:
  65:Custom_Motor.c ****         MotorDirRight_Write(0);
 175              		.loc 1 65 0
 176 000c 0020     		movs	r0, #0
 177 000e FFF7FEFF 		bl	MotorDirRight_Write
 178              	.LVL24:
  66:Custom_Motor.c ****         PWM_WriteCompare1(255);
 179              		.loc 1 66 0
 180 0012 FF20     		movs	r0, #255
 181 0014 FFF7FEFF 		bl	PWM_WriteCompare1
 182              	.LVL25:
  67:Custom_Motor.c ****         PWM_WriteCompare2(240);
 183              		.loc 1 67 0
 184 0018 F020     		movs	r0, #240
 185 001a FFF7FEFF 		bl	PWM_WriteCompare2
 186              	.LVL26:
  68:Custom_Motor.c ****         CyDelay(delay);
 187              		.loc 1 68 0
 188 001e 2046     		mov	r0, r4
 189 0020 FFF7FEFF 		bl	CyDelay
 190              	.LVL27:
 191 0024 10BD     		pop	{r4, pc}
 192              	.LVL28:
 193              	.L10:
  69:Custom_Motor.c ****     
  70:Custom_Motor.c ****       // right turn
  71:Custom_Motor.c ****     } else if (dir_flag == 1) {
 194              		.loc 1 71 0
 195 0026 0129     		cmp	r1, #1
 196 0028 0ED1     		bne	.L9
  72:Custom_Motor.c ****     
  73:Custom_Motor.c ****         MotorDirLeft_Write(0);
 197              		.loc 1 73 0
 198 002a 0020     		movs	r0, #0
 199              	.LVL29:
 200 002c FFF7FEFF 		bl	MotorDirLeft_Write
 201              	.LVL30:
  74:Custom_Motor.c ****         MotorDirRight_Write(1);
 202              		.loc 1 74 0
 203 0030 0120     		movs	r0, #1
 204 0032 FFF7FEFF 		bl	MotorDirRight_Write
 205              	.LVL31:
  75:Custom_Motor.c ****         PWM_WriteCompare1(255);
 206              		.loc 1 75 0
 207 0036 FF20     		movs	r0, #255
 208 0038 FFF7FEFF 		bl	PWM_WriteCompare1
 209              	.LVL32:
  76:Custom_Motor.c ****         PWM_WriteCompare2(240);
ARM GAS  C:\Users\KOOMOO~1\AppData\Local\Temp\ccv2yNvZ.s 			page 6


 210              		.loc 1 76 0
 211 003c F020     		movs	r0, #240
 212 003e FFF7FEFF 		bl	PWM_WriteCompare2
 213              	.LVL33:
  77:Custom_Motor.c ****         CyDelay(delay);
 214              		.loc 1 77 0
 215 0042 2046     		mov	r0, r4
 216 0044 FFF7FEFF 		bl	CyDelay
 217              	.LVL34:
 218              	.L9:
 219 0048 10BD     		pop	{r4, pc}
 220              		.cfi_endproc
 221              	.LFE66:
 222              		.size	Ultrasharp_turn, .-Ultrasharp_turn
 223 004a 00BF     		.text
 224              	.Letext0:
 225              		.file 2 "c:\\program files (x86)\\cypress\\psoc creator\\4.0\\psoc creator\\import\\gnu\\arm\\4.9.
 226              		.file 3 "c:\\program files (x86)\\cypress\\psoc creator\\4.0\\psoc creator\\import\\gnu\\arm\\4.9.
 227              		.file 4 "Generated_Source\\PSoC5/cytypes.h"
 228              		.file 5 "Generated_Source\\PSoC5/MotorDirLeft.h"
 229              		.file 6 "Generated_Source\\PSoC5/MotorDirRight.h"
 230              		.file 7 "Generated_Source\\PSoC5/PWM.h"
 231              		.file 8 "Generated_Source\\PSoC5/core_cm3.h"
 232              		.file 9 "Generated_Source\\PSoC5/CyLib.h"