ARM GAS  C:\Users\VILLEL~1\AppData\Local\Temp\cc1IxSQp.s 			page 1


   1              		.syntax unified
   2              		.cpu cortex-m3
   3              		.fpu softvfp
   4              		.eabi_attribute 20, 1
   5              		.eabi_attribute 21, 1
   6              		.eabi_attribute 23, 3
   7              		.eabi_attribute 24, 1
   8              		.eabi_attribute 25, 1
   9              		.eabi_attribute 26, 1
  10              		.eabi_attribute 30, 1
  11              		.eabi_attribute 34, 1
  12              		.eabi_attribute 18, 4
  13              		.thumb
  14              		.file	"main.c"
  15              		.text
  16              	.Ltext0:
  17              		.cfi_sections	.debug_frame
  18              		.global	__aeabi_fcmplt
  19              		.section	.text.main,"ax",%progbits
  20              		.align	2
  21              		.global	main
  22              		.thumb
  23              		.thumb_func
  24              		.type	main, %function
  25              	main:
  26              	.LFB63:
  27              		.file 1 "main.c"
   1:main.c        **** /**
   2:main.c        **** * @mainpage ZumoBot Project
   3:main.c        **** * @brief    PROJECT LATTE -- Sumo version of the robot project.
   4:main.c        **** */
   5:main.c        **** /**
   6:main.c        ****  * @file    main.c
   7:main.c        ****  * @brief   
   8:main.c        ****  * @details  ** You should enable global interrupt for operating properly. **<br>&nbsp;&nbsp;&nbsp;
   9:main.c        **** */
  10:main.c        **** 
  11:main.c        **** #include <project.h>
  12:main.c        **** #include <stdio.h>
  13:main.c        **** #include "Motor.h"
  14:main.c        **** #include "Ultra.h"
  15:main.c        **** #include "Reflectance.h"
  16:main.c        **** #include "IR.h"
  17:main.c        **** 
  18:main.c        **** // Declare used functions.
  19:main.c        **** int rread(void);
  20:main.c        **** void motor_start();
  21:main.c        **** void motor_forward(uint8 speed,uint32 delay);
  22:main.c        **** void motor_turn(uint8 l_speed, uint8 r_speed, uint32 delay);
  23:main.c        **** void reflectance_set_threshold(uint16_t l3, uint16_t l1, uint16_t r1, uint16_t r3);
  24:main.c        **** void Measure_Voltage();
  25:main.c        **** void Custom_forward(uint8 speed);
  26:main.c        **** void Custom_backward(uint8 speed);
  27:main.c        **** void Turn(uint32 turn, int dir_flag);
  28:main.c        **** void Ultrasharp_turn(uint32 delay, int dir_flag);
  29:main.c        **** 
  30:main.c        **** int main()
ARM GAS  C:\Users\VILLEL~1\AppData\Local\Temp\cc1IxSQp.s 			page 2


  31:main.c        **** {
  28              		.loc 1 31 0
  29              		.cfi_startproc
  30              		@ args = 0, pretend = 0, frame = 16
  31              		@ frame_needed = 0, uses_anonymous_args = 0
  32 0000 F0B5     		push	{r4, r5, r6, r7, lr}
  33              		.cfi_def_cfa_offset 20
  34              		.cfi_offset 4, -20
  35              		.cfi_offset 5, -16
  36              		.cfi_offset 6, -12
  37              		.cfi_offset 7, -8
  38              		.cfi_offset 14, -4
  39 0002 85B0     		sub	sp, sp, #20
  40              		.cfi_def_cfa_offset 40
  41              	.LVL0:
  32:main.c        ****     // ==================== CRUCIAL DEFINITIONS ======================================= //
  33:main.c        ****     
  34:main.c        ****     // (Maximum) movement speed of the robot.
  35:main.c        ****     uint8 speed = 240;
  36:main.c        ****     
  37:main.c        ****     // Reflectance thresholds (determined experimentally) for use in different movement behaviours.
  38:main.c        ****     int black_threshold_l3 = 15000; // actual line edge value: somewhere betwen 20 000 - 21 000.
  39:main.c        ****     int black_threshold_l1 = 18000; // 'sure bet' working value: 17 500 // actual line edge value: 
  40:main.c        ****     int black_threshold_r1 = 22500; // 'sure bet' working value: 22 000 // actual line edge value: 
  41:main.c        ****     int black_threshold_r3 = 15000; // actual line edge value: somewhere between 20 000 - 21 500.
  42:main.c        ****  
  43:main.c        ****     // ==================== OTHER STUFFS ======================================= //
  44:main.c        ****         
  45:main.c        ****     // Needed for using the button to start the robot's movement routine.
  46:main.c        ****     int buttonPress = 0;
  47:main.c        ****     uint8 button; // make button exist
  48:main.c        ****     
  49:main.c        ****     // Needed for stopping at the first black line and waiting for IR signal.
  50:main.c        ****     int firstStop_flag = 0;
  51:main.c        ****     
  52:main.c        ****     /*
  53:main.c        ****     // Needed for storing remote controller IR signal.
  54:main.c        ****     unsigned int IR_val;  */
  55:main.c        ****    
  56:main.c        ****     // Direction flag for correct turning behaviour. '0' = 'left turn', '1' = 'right turn'.
  57:main.c        ****     int dir_flag;
  58:main.c        ****     
  59:main.c        ****     // ==================== ACTUAL START ======================================= //
  60:main.c        ****  
  61:main.c        ****     // Initialize various starting thingies
  62:main.c        ****     struct sensors_ ref;
  63:main.c        ****     struct sensors_ dig;
  64:main.c        ****     CyGlobalIntEnable; 
  42              		.loc 1 64 0
  43              	@ 64 "main.c" 1
  44 0004 62B6     		CPSIE   i
  45              	@ 0 "" 2
  65:main.c        ****     UART_1_Start();
  46              		.loc 1 65 0
  47              		.thumb
  48 0006 FFF7FEFF 		bl	UART_1_Start
  49              	.LVL1:
ARM GAS  C:\Users\VILLEL~1\AppData\Local\Temp\cc1IxSQp.s 			page 3


  66:main.c        ****     ADC_Battery_Start();   
  50              		.loc 1 66 0
  51 000a FFF7FEFF 		bl	ADC_Battery_Start
  52              	.LVL2:
  67:main.c        ****     Ultra_Start();
  53              		.loc 1 67 0
  54 000e FFF7FEFF 		bl	Ultra_Start
  55              	.LVL3:
  68:main.c        ****     
  69:main.c        ****     Measure_Voltage(); // measure battery voltage at robot start
  56              		.loc 1 69 0
  57 0012 FFF7FEFF 		bl	Measure_Voltage
  58              	.LVL4:
  70:main.c        ****     
  71:main.c        ****     motor_start(); // start the motor
  59              		.loc 1 71 0
  60 0016 FFF7FEFF 		bl	motor_start
  61              	.LVL5:
  72:main.c        ****     motor_forward(0, 0); // stop the motor at robot start, as it seems to run at a low speed if sim
  62              		.loc 1 72 0
  63 001a 0020     		movs	r0, #0
  64 001c 0146     		mov	r1, r0
  65 001e FFF7FEFF 		bl	motor_forward
  66              	.LVL6:
  73:main.c        ****     
  74:main.c        ****     // Initialize IR sensors.
  75:main.c        ****     sensor_isr_StartEx(sensor_isr_handler); 
  67              		.loc 1 75 0
  68 0022 7948     		ldr	r0, .L23
  69 0024 FFF7FEFF 		bl	sensor_isr_StartEx
  70              	.LVL7:
  76:main.c        ****     reflectance_set_threshold(black_threshold_l3, black_threshold_l1, black_threshold_r1, black_thr
  71              		.loc 1 76 0
  72 0028 43F69820 		movw	r0, #15000
  73 002c 44F25061 		movw	r1, #18000
  74 0030 45F2E472 		movw	r2, #22500
  75 0034 0346     		mov	r3, r0
  76 0036 FFF7FEFF 		bl	reflectance_set_threshold
  77              	.LVL8:
  77:main.c        ****     reflectance_start();
  78              		.loc 1 77 0
  79 003a FFF7FEFF 		bl	reflectance_start
  80              	.LVL9:
  78:main.c        ****     IR_led_Write(1);
  81              		.loc 1 78 0
  82 003e 0120     		movs	r0, #1
  83 0040 FFF7FEFF 		bl	IR_led_Write
  84              	.LVL10:
  79:main.c        **** 
  80:main.c        ****     BatteryLed_Write(0); // Switch led off 
  85              		.loc 1 80 0
  86 0044 0020     		movs	r0, #0
  87 0046 FFF7FEFF 		bl	BatteryLed_Write
  88              	.LVL11:
  46:main.c        ****     uint8 button; // make button exist
  89              		.loc 1 46 0
  90 004a 0024     		movs	r4, #0
ARM GAS  C:\Users\VILLEL~1\AppData\Local\Temp\cc1IxSQp.s 			page 4


  81:main.c        ****   
  82:main.c        ****     // Wait for button press to start the robot's movement routine.
  83:main.c        ****     while (buttonPress == 0) 
  91              		.loc 1 83 0
  92 004c 06E0     		b	.L3
  93              	.LVL12:
  94              	.L4:
  84:main.c        ****     {
  85:main.c        ****         button = SW1_Read();
  95              		.loc 1 85 0
  96 004e FFF7FEFF 		bl	SW1_Read
  97              	.LVL13:
  86:main.c        ****         
  87:main.c        ****         if (button == 0) 
  98              		.loc 1 87 0
  99 0052 18B9     		cbnz	r0, .L3
 100              	.LVL14:
  88:main.c        ****         {
  89:main.c        ****             buttonPress = 1;
  90:main.c        ****             CyDelay(10);
 101              		.loc 1 90 0
 102 0054 0A20     		movs	r0, #10
 103              	.LVL15:
 104 0056 FFF7FEFF 		bl	CyDelay
 105              	.LVL16:
  89:main.c        ****             CyDelay(10);
 106              		.loc 1 89 0
 107 005a 0124     		movs	r4, #1
 108              	.LVL17:
 109              	.L3:
  83:main.c        ****     {
 110              		.loc 1 83 0
 111 005c 002C     		cmp	r4, #0
 112 005e F6D0     		beq	.L4
 113 0060 0024     		movs	r4, #0
 114              	.LVL18:
 115 0062 16E0     		b	.L5
 116              	.LVL19:
 117              	.L7:
  91:main.c        ****         }
  92:main.c        ****     }
  93:main.c        ****     
  94:main.c        ****     while (firstStop_flag == 0)
  95:main.c        ****     {
  96:main.c        ****     
  97:main.c        ****         // Go forward at low speed until meeting the first horizontal black line.
  98:main.c        ****         // Then wait for the IR signal to proceed.
  99:main.c        ****         Custom_forward(speed/2.5);
 118              		.loc 1 99 0
 119 0064 6020     		movs	r0, #96
 120 0066 FFF7FEFF 		bl	Custom_forward
 121              	.LVL20:
 100:main.c        ****         
 101:main.c        ****         reflectance_read(&ref);
 122              		.loc 1 101 0
 123 006a 02A8     		add	r0, sp, #8
 124 006c FFF7FEFF 		bl	reflectance_read
ARM GAS  C:\Users\VILLEL~1\AppData\Local\Temp\cc1IxSQp.s 			page 5


 125              	.LVL21:
 102:main.c        ****         reflectance_digital(&dig);
 126              		.loc 1 102 0
 127 0070 6846     		mov	r0, sp
 128 0072 FFF7FEFF 		bl	reflectance_digital
 129              	.LVL22:
 103:main.c        ****         
 104:main.c        ****         if (dig.l3 == 0 && dig.r3 == 0)
 130              		.loc 1 104 0
 131 0076 BDF80030 		ldrh	r3, [sp]
 132 007a 3BB9     		cbnz	r3, .L6
 133              		.loc 1 104 0 is_stmt 0 discriminator 1
 134 007c BDF80630 		ldrh	r3, [sp, #6]
 135 0080 23B9     		cbnz	r3, .L6
 105:main.c        ****         {
 106:main.c        ****             motor_forward(0,0);
 136              		.loc 1 106 0 is_stmt 1
 137 0082 0020     		movs	r0, #0
 138 0084 0146     		mov	r1, r0
 139 0086 FFF7FEFF 		bl	motor_forward
 140              	.LVL23:
 107:main.c        ****             firstStop_flag = 1;
 141              		.loc 1 107 0
 142 008a 0124     		movs	r4, #1
 143              	.LVL24:
 144              	.L6:
 108:main.c        ****         }
 109:main.c        ****         
 110:main.c        ****         CyDelay(1);
 145              		.loc 1 110 0
 146 008c 0120     		movs	r0, #1
 147 008e FFF7FEFF 		bl	CyDelay
 148              	.LVL25:
 149              	.L5:
  94:main.c        ****     {
 150              		.loc 1 94 0
 151 0092 002C     		cmp	r4, #0
 152 0094 E6D0     		beq	.L7
 111:main.c        ****     
 112:main.c        ****     }
 113:main.c        ****     
 114:main.c        ****     // Wait for IR signal. Upon getting it, proceed forward.
 115:main.c        ****     get_IR();
 153              		.loc 1 115 0
 154 0096 FFF7FEFF 		bl	get_IR
 155              	.LVL26:
 116:main.c        **** 
 117:main.c        ****     // ==== SUMO LOGIC ('THE SPIRAL HUNTER™') ===================================================
 118:main.c        **** 
 119:main.c        **** 	int turnFactor = 12000;
 120:main.c        **** 	int outwardFlag = 1;
 121:main.c        ****     int turn_flag = 1;   
 122:main.c        ****     uint32 turnDel;
 123:main.c        **** 
 124:main.c        ****     // Full speed ahead for 0.7 seconds (to reach the center).    
 125:main.c        ****     Custom_forward(speed);
 156              		.loc 1 125 0
ARM GAS  C:\Users\VILLEL~1\AppData\Local\Temp\cc1IxSQp.s 			page 6


 157 009a F020     		movs	r0, #240
 158 009c FFF7FEFF 		bl	Custom_forward
 159              	.LVL27:
 126:main.c        ****     CyDelay(700); // <== experimental value; enough to make it to the center, or close to it.
 160              		.loc 1 126 0
 161 00a0 4FF42F70 		mov	r0, #700
 162 00a4 FFF7FEFF 		bl	CyDelay
 163              	.LVL28:
 121:main.c        ****     uint32 turnDel;
 164              		.loc 1 121 0
 165 00a8 0124     		movs	r4, #1
 166              	.LVL29:
 120:main.c        ****     int turn_flag = 1;   
 167              		.loc 1 120 0
 168 00aa 2646     		mov	r6, r4
 119:main.c        **** 	int outwardFlag = 1;
 169              		.loc 1 119 0
 170 00ac 42F6E065 		movw	r5, #12000
 127:main.c        **** 
 128:main.c        ****     // Turn to the left (direction is arbitrary at this juncture).
 129:main.c        **** 	dir_flag = 0;
 171              		.loc 1 129 0
 172 00b0 0027     		movs	r7, #0
 173              	.LVL30:
 174              	.L8:
 130:main.c        ****     
 131:main.c        ****     // Loop for running the main 'hunt' logic in.
 132:main.c        ****     while (1) 
 133:main.c        ****     {
 134:main.c        ****         
 135:main.c        ****         CyDelay(1);
 175              		.loc 1 135 0
 176 00b2 0120     		movs	r0, #1
 177 00b4 FFF7FEFF 		bl	CyDelay
 178              	.LVL31:
 136:main.c        ****    
 137:main.c        ****         if (turn_flag == 1) 
 179              		.loc 1 137 0
 180 00b8 D4B1     		cbz	r4, .L9
 138:main.c        ****         {
 139:main.c        **** 
 140:main.c        ****             // This logic results in the robot moving in a spiral pattern (until it detects the oth
 141:main.c        ****             // it speeds straight ahead in a 'hunting move'). The first spiral will run from the ce
 142:main.c        ****             // then back to the center; then back out again; etc. (However, see NOTE at the very bo
 143:main.c        ****             if (outwardFlag == 1) 
 181              		.loc 1 143 0
 182 00ba 1EB1     		cbz	r6, .L10
 144:main.c        ****             {
 145:main.c        ****             	turnFactor--; // drops to zero in a bit over 12 seconds
 183              		.loc 1 145 0
 184 00bc 013D     		subs	r5, r5, #1
 185              	.LVL32:
 146:main.c        ****             	if (turnFactor <= 0) 
 186              		.loc 1 146 0
 187 00be 002D     		cmp	r5, #0
 188 00c0 0DDC     		bgt	.L11
 189 00c2 06E0     		b	.L19
ARM GAS  C:\Users\VILLEL~1\AppData\Local\Temp\cc1IxSQp.s 			page 7


 190              	.L10:
 147:main.c        ****         	    {
 148:main.c        ****     	            outwardFlag = 0;
 149:main.c        ****                     turnFactor = 0;
 150:main.c        ****             	}
 151:main.c        ****                 
 152:main.c        ****              } else if (outwardFlag == 0) {
 191              		.loc 1 152 0
 192 00c4 5EB9     		cbnz	r6, .L11
 153:main.c        ****                 
 154:main.c        ****         	    turnFactor++; // ~12 seconds to get back to 12000
 193              		.loc 1 154 0
 194 00c6 0135     		adds	r5, r5, #1
 195              	.LVL33:
 155:main.c        ****         	    if (turnFactor >= 12000)
 196              		.loc 1 155 0
 197 00c8 42F6DF63 		movw	r3, #11999
 198 00cc 9D42     		cmp	r5, r3
 199 00ce 03DC     		bgt	.L20
 200 00d0 05E0     		b	.L11
 201              	.L19:
 148:main.c        ****                     turnFactor = 0;
 202              		.loc 1 148 0
 203 00d2 0026     		movs	r6, #0
 204              	.LVL34:
 149:main.c        ****             	}
 205              		.loc 1 149 0
 206 00d4 3546     		mov	r5, r6
 207              	.LVL35:
 208 00d6 02E0     		b	.L11
 209              	.LVL36:
 210              	.L20:
 156:main.c        ****         	    {
 157:main.c        ****         	        outwardFlag = 1;
 211              		.loc 1 157 0
 212 00d8 0126     		movs	r6, #1
 213              	.LVL37:
 158:main.c        ****                     turnFactor = 12000;
 214              		.loc 1 158 0
 215 00da 42F6E065 		movw	r5, #12000
 216              	.LVL38:
 217              	.L11:
 159:main.c        ****                 }
 160:main.c        ****              }
 161:main.c        **** 
 162:main.c        ****         // Execute the turn.    
 163:main.c        ****         Turn(turnFactor/50, dir_flag);
 218              		.loc 1 163 0
 219 00de 4B4B     		ldr	r3, .L23+4
 220 00e0 83FB0523 		smull	r2, r3, r3, r5
 221 00e4 E817     		asrs	r0, r5, #31
 222 00e6 C0EB2310 		rsb	r0, r0, r3, asr #4
 223 00ea 3946     		mov	r1, r7
 224 00ec FFF7FEFF 		bl	Turn
 225              	.LVL39:
 226              	.L9:
 164:main.c        ****         
ARM GAS  C:\Users\VILLEL~1\AppData\Local\Temp\cc1IxSQp.s 			page 8


 165:main.c        ****         }
 166:main.c        ****         
 167:main.c        ****         // read blackness value
 168:main.c        ****         reflectance_read(&ref);
 227              		.loc 1 168 0
 228 00f0 02A8     		add	r0, sp, #8
 229 00f2 FFF7FEFF 		bl	reflectance_read
 230              	.LVL40:
 169:main.c        ****         reflectance_digital(&dig);
 231              		.loc 1 169 0
 232 00f6 6846     		mov	r0, sp
 233 00f8 FFF7FEFF 		bl	reflectance_digital
 234              	.LVL41:
 170:main.c        ****      
 171:main.c        ****         // 'Ramming' logic.
 172:main.c        ****         // If the ultrasound sensor detects an object within 20 'units', 
 173:main.c        ****         // drive towards it at full speed and disable turn logic (until meeting black line).
 174:main.c        ****         if (Ultra_GetDistance() < 20) // <== experimental 'hunt distance'
 235              		.loc 1 174 0
 236 00fc FFF7FEFF 		bl	Ultra_GetDistance
 237              	.LVL42:
 238 0100 4349     		ldr	r1, .L23+8
 239 0102 FFF7FEFF 		bl	__aeabi_fcmplt
 240              	.LVL43:
 241 0106 18B1     		cbz	r0, .L12
 175:main.c        ****         {
 176:main.c        ****             Custom_forward(speed);
 242              		.loc 1 176 0
 243 0108 F020     		movs	r0, #240
 244 010a FFF7FEFF 		bl	Custom_forward
 245              	.LVL44:
 177:main.c        ****     	    turn_flag = 0;
 246              		.loc 1 177 0
 247 010e 0024     		movs	r4, #0
 248              	.LVL45:
 249              	.L12:
 178:main.c        ****         }
 179:main.c        ****         
 180:main.c        ****                     
 181:main.c        ****         // (These ifs could be refined further, but it's more work than it's worth, imo.)      
 182:main.c        ****         // If both sensors are activated, back up for a bit and then re-start outward turn.
 183:main.c        ****         if (dig.l3 == 0 && dig.r3 == 0) {
 250              		.loc 1 183 0
 251 0110 BDF80030 		ldrh	r3, [sp]
 252 0114 ABB9     		cbnz	r3, .L14
 253              		.loc 1 183 0 is_stmt 0 discriminator 1
 254 0116 BDF80620 		ldrh	r2, [sp, #6]
 255 011a 92B9     		cbnz	r2, .L14
 184:main.c        ****             
 185:main.c        ****             Custom_backward(140);
 256              		.loc 1 185 0 is_stmt 1
 257 011c 8C20     		movs	r0, #140
 258 011e FFF7FEFF 		bl	Custom_backward
 259              	.LVL46:
 186:main.c        ****             CyDelay(400); // temp value
 260              		.loc 1 186 0
 261 0122 4FF4C870 		mov	r0, #400
ARM GAS  C:\Users\VILLEL~1\AppData\Local\Temp\cc1IxSQp.s 			page 9


 262 0126 FFF7FEFF 		bl	CyDelay
 263              	.LVL47:
 187:main.c        ****             MotorDirLeft_Write(0);
 264              		.loc 1 187 0
 265 012a 0020     		movs	r0, #0
 266 012c FFF7FEFF 		bl	MotorDirLeft_Write
 267              	.LVL48:
 188:main.c        ****             MotorDirRight_Write(0);
 268              		.loc 1 188 0
 269 0130 0020     		movs	r0, #0
 270 0132 FFF7FEFF 		bl	MotorDirRight_Write
 271              	.LVL49:
 189:main.c        ****             dir_flag = 0;
 190:main.c        **** 	        turnFactor = 12000;
 191:main.c        **** 	        outwardFlag = 1;
 192:main.c        **** 	        turn_flag = 1;
 272              		.loc 1 192 0
 273 0136 0124     		movs	r4, #1
 191:main.c        **** 	        turn_flag = 1;
 274              		.loc 1 191 0
 275 0138 2646     		mov	r6, r4
 190:main.c        **** 	        outwardFlag = 1;
 276              		.loc 1 190 0
 277 013a 42F6E065 		movw	r5, #12000
 189:main.c        ****             dir_flag = 0;
 278              		.loc 1 189 0
 279 013e 0027     		movs	r7, #0
 280              		.loc 1 192 0
 281 0140 B7E7     		b	.L8
 282              	.LVL50:
 283              	.L14:
 193:main.c        ****         
 194:main.c        ****           // If the left sensor is activated, turn sharply to the right and then begin inward spira
 195:main.c        ****         }  else if (dig.l3 == 0 && ref.r3 >= 10000) {
 284              		.loc 1 195 0
 285 0142 C3B9     		cbnz	r3, .L16
 286              		.loc 1 195 0 is_stmt 0 discriminator 1
 287 0144 BDF80E10 		ldrh	r1, [sp, #14]
 288 0148 42F20F72 		movw	r2, #9999
 289 014c 9142     		cmp	r1, r2
 290 014e 12D9     		bls	.L16
 196:main.c        ****         
 197:main.c        ****             Custom_backward(140);
 291              		.loc 1 197 0 is_stmt 1
 292 0150 8C20     		movs	r0, #140
 293 0152 FFF7FEFF 		bl	Custom_backward
 294              	.LVL51:
 198:main.c        ****             CyDelay(400); // temp value
 295              		.loc 1 198 0
 296 0156 4FF4C870 		mov	r0, #400
 297 015a FFF7FEFF 		bl	CyDelay
 298              	.LVL52:
 199:main.c        ****             MotorDirLeft_Write(0);
 299              		.loc 1 199 0
 300 015e 0020     		movs	r0, #0
 301 0160 FFF7FEFF 		bl	MotorDirLeft_Write
 302              	.LVL53:
ARM GAS  C:\Users\VILLEL~1\AppData\Local\Temp\cc1IxSQp.s 			page 10


 200:main.c        ****             MotorDirRight_Write(0);
 303              		.loc 1 200 0
 304 0164 0020     		movs	r0, #0
 305 0166 FFF7FEFF 		bl	MotorDirRight_Write
 306              	.LVL54:
 201:main.c        ****             dir_flag = 0;
 202:main.c        **** 	        turnFactor = 12000;
 203:main.c        **** 	        outwardFlag = 1;
 204:main.c        **** 	        turn_flag = 1;
 307              		.loc 1 204 0
 308 016a 0124     		movs	r4, #1
 203:main.c        **** 	        turn_flag = 1;
 309              		.loc 1 203 0
 310 016c 2646     		mov	r6, r4
 202:main.c        **** 	        outwardFlag = 1;
 311              		.loc 1 202 0
 312 016e 42F6E065 		movw	r5, #12000
 201:main.c        ****             dir_flag = 0;
 313              		.loc 1 201 0
 314 0172 0027     		movs	r7, #0
 315              		.loc 1 204 0
 316 0174 9DE7     		b	.L8
 317              	.LVL55:
 318              	.L16:
 205:main.c        ****      
 206:main.c        ****         } else if (dig.r3 == 0 && ref.l3 >= 10000) {
 319              		.loc 1 206 0
 320 0176 BDF80620 		ldrh	r2, [sp, #6]
 321 017a C2B9     		cbnz	r2, .L17
 322              		.loc 1 206 0 is_stmt 0 discriminator 1
 323 017c BDF80800 		ldrh	r0, [sp, #8]
 324 0180 42F20F71 		movw	r1, #9999
 325 0184 8842     		cmp	r0, r1
 326 0186 12D9     		bls	.L17
 207:main.c        ****         
 208:main.c        ****             Custom_backward(140);
 327              		.loc 1 208 0 is_stmt 1
 328 0188 8C20     		movs	r0, #140
 329 018a FFF7FEFF 		bl	Custom_backward
 330              	.LVL56:
 209:main.c        ****             CyDelay(400); // temp value
 331              		.loc 1 209 0
 332 018e 4FF4C870 		mov	r0, #400
 333 0192 FFF7FEFF 		bl	CyDelay
 334              	.LVL57:
 210:main.c        ****             MotorDirLeft_Write(0);
 335              		.loc 1 210 0
 336 0196 0020     		movs	r0, #0
 337 0198 FFF7FEFF 		bl	MotorDirLeft_Write
 338              	.LVL58:
 211:main.c        ****             MotorDirRight_Write(0);
 339              		.loc 1 211 0
 340 019c 0020     		movs	r0, #0
 341 019e FFF7FEFF 		bl	MotorDirRight_Write
 342              	.LVL59:
 212:main.c        ****             dir_flag = 0;
 213:main.c        **** 	        turnFactor = 12000;
ARM GAS  C:\Users\VILLEL~1\AppData\Local\Temp\cc1IxSQp.s 			page 11


 214:main.c        **** 	        outwardFlag = 1;
 215:main.c        **** 	        turn_flag = 1;
 343              		.loc 1 215 0
 344 01a2 0124     		movs	r4, #1
 214:main.c        **** 	        turn_flag = 1;
 345              		.loc 1 214 0
 346 01a4 2646     		mov	r6, r4
 213:main.c        **** 	        outwardFlag = 1;
 347              		.loc 1 213 0
 348 01a6 42F6E065 		movw	r5, #12000
 212:main.c        ****             dir_flag = 0;
 349              		.loc 1 212 0
 350 01aa 0027     		movs	r7, #0
 351              		.loc 1 215 0
 352 01ac 81E7     		b	.L8
 353              	.LVL60:
 354              	.L17:
 216:main.c        **** 
 217:main.c        ****         }  else if (dig.l3 == 0) {
 355              		.loc 1 217 0
 356 01ae 9BB9     		cbnz	r3, .L18
 218:main.c        ****             
 219:main.c        ****             turnDel = 520000/ref.l3; // 480k is an experimental constant; leads to a very sharp tur
 357              		.loc 1 219 0
 358 01b0 BDF80830 		ldrh	r3, [sp, #8]
 359              	.LVL61:
 220:main.c        ****             Ultrasharp_turn(turnDel,1);
 360              		.loc 1 220 0
 361 01b4 1748     		ldr	r0, .L23+12
 362 01b6 90FBF3F0 		sdiv	r0, r0, r3
 363              	.LVL62:
 364 01ba 0121     		movs	r1, #1
 365 01bc FFF7FEFF 		bl	Ultrasharp_turn
 366              	.LVL63:
 221:main.c        ****             MotorDirLeft_Write(0);
 367              		.loc 1 221 0
 368 01c0 0020     		movs	r0, #0
 369 01c2 FFF7FEFF 		bl	MotorDirLeft_Write
 370              	.LVL64:
 222:main.c        ****             MotorDirRight_Write(0);
 371              		.loc 1 222 0
 372 01c6 0020     		movs	r0, #0
 373 01c8 FFF7FEFF 		bl	MotorDirRight_Write
 374              	.LVL65:
 223:main.c        ****             dir_flag = 1;
 224:main.c        ****     	    turnFactor = 5000; // some 'head start' is needed to make the turn sharp enough
 225:main.c        ****     	    outwardFlag = 0;
 226:main.c        ****     	    turn_flag = 1;
 375              		.loc 1 226 0
 376 01cc 0124     		movs	r4, #1
 225:main.c        ****     	    turn_flag = 1;
 377              		.loc 1 225 0
 378 01ce 0026     		movs	r6, #0
 224:main.c        ****     	    outwardFlag = 0;
 379              		.loc 1 224 0
 380 01d0 41F28835 		movw	r5, #5000
 223:main.c        ****             dir_flag = 1;
ARM GAS  C:\Users\VILLEL~1\AppData\Local\Temp\cc1IxSQp.s 			page 12


 381              		.loc 1 223 0
 382 01d4 2746     		mov	r7, r4
 383 01d6 6CE7     		b	.L8
 384              	.LVL66:
 385              	.L18:
 227:main.c        ****                 
 228:main.c        ****           // If the right sensor is activated, turn sharply to the left and then begin inward spira
 229:main.c        ****         } else if (dig.r3 == 0) {
 386              		.loc 1 229 0
 387 01d8 002A     		cmp	r2, #0
 388 01da 7FF46AAF 		bne	.L8
 230:main.c        ****                 
 231:main.c        ****             turnDel = 520000/ref.r3; // // 480k is an experimental constant; leads to a very sharp 
 389              		.loc 1 231 0
 390 01de BDF80E30 		ldrh	r3, [sp, #14]
 391              	.LVL67:
 232:main.c        ****             Ultrasharp_turn(turnDel,0);
 392              		.loc 1 232 0
 393 01e2 0C48     		ldr	r0, .L23+12
 394 01e4 90FBF3F0 		sdiv	r0, r0, r3
 395              	.LVL68:
 396 01e8 0021     		movs	r1, #0
 397 01ea FFF7FEFF 		bl	Ultrasharp_turn
 398              	.LVL69:
 233:main.c        ****             MotorDirLeft_Write(0);
 399              		.loc 1 233 0
 400 01ee 0020     		movs	r0, #0
 401 01f0 FFF7FEFF 		bl	MotorDirLeft_Write
 402              	.LVL70:
 234:main.c        ****             MotorDirRight_Write(0);
 403              		.loc 1 234 0
 404 01f4 0020     		movs	r0, #0
 405 01f6 FFF7FEFF 		bl	MotorDirRight_Write
 406              	.LVL71:
 235:main.c        ****             dir_flag = 0;
 236:main.c        **** 	        turnFactor = 5000; // some 'head start' is needed to make the turn sharp enough
 237:main.c        **** 	        outwardFlag = 0;
 238:main.c        **** 	        turn_flag = 1;
 407              		.loc 1 238 0
 408 01fa 0124     		movs	r4, #1
 237:main.c        **** 	        turn_flag = 1;
 409              		.loc 1 237 0
 410 01fc 0026     		movs	r6, #0
 236:main.c        **** 	        outwardFlag = 0;
 411              		.loc 1 236 0
 412 01fe 41F28835 		movw	r5, #5000
 235:main.c        ****             dir_flag = 0;
 413              		.loc 1 235 0
 414 0202 3746     		mov	r7, r6
 415 0204 55E7     		b	.L8
 416              	.L24:
 417 0206 00BF     		.align	2
 418              	.L23:
 419 0208 00000000 		.word	sensor_isr_handler
 420 020c 1F85EB51 		.word	1374389535
 421 0210 0000A041 		.word	1101004800
 422 0214 40EF0700 		.word	520000
ARM GAS  C:\Users\VILLEL~1\AppData\Local\Temp\cc1IxSQp.s 			page 13


 423              		.cfi_endproc
 424              	.LFE63:
 425              		.size	main, .-main
 426              		.section	.text._write,"ax",%progbits
 427              		.align	2
 428              		.global	_write
 429              		.thumb
 430              		.thumb_func
 431              		.type	_write, %function
 432              	_write:
 433              	.LFB64:
 239:main.c        ****         } 
 240:main.c        **** 
 241:main.c        ****     	// NOTE: The robot will get 'desynched' after one or more 'hunt' episodes, because the angle o
 242:main.c        ****     	// of the 'reset' turn logic, meaning that the robot will overrun the center-point when turnFa
 243:main.c        ****     	// similarly 'desynchronized'; etc. The perfect spiral pattern that was in effect before the h
 244:main.c        ****     	// way to find the center-point again after the very beginning. However, it should not matter 
 245:main.c        ****     	// remain spiral-ish in spite of these distortions.
 246:main.c        ****         
 247:main.c        ****     }
 248:main.c        ****         
 249:main.c        **** }
 250:main.c        ****     
 251:main.c        **** // ================================================================================================
 252:main.c        **** // ================================================================================================
 253:main.c        **** 
 254:main.c        **** /* Don't remove the functions below */
 255:main.c        **** int _write(int file, char *ptr, int len)
 256:main.c        **** {
 434              		.loc 1 256 0
 435              		.cfi_startproc
 436              		@ args = 0, pretend = 0, frame = 0
 437              		@ frame_needed = 0, uses_anonymous_args = 0
 438              	.LVL72:
 439 0000 F8B5     		push	{r3, r4, r5, r6, r7, lr}
 440              		.cfi_def_cfa_offset 24
 441              		.cfi_offset 3, -24
 442              		.cfi_offset 4, -20
 443              		.cfi_offset 5, -16
 444              		.cfi_offset 6, -12
 445              		.cfi_offset 7, -8
 446              		.cfi_offset 14, -4
 447 0002 0C46     		mov	r4, r1
 448 0004 1746     		mov	r7, r2
 449              	.LVL73:
 257:main.c        ****     (void)file; /* Parameter is not used, suppress unused argument warning */
 258:main.c        **** 	int n;
 259:main.c        **** 	for(n = 0; n < len; n++) {
 450              		.loc 1 259 0
 451 0006 0025     		movs	r5, #0
 452 0008 0BE0     		b	.L26
 453              	.LVL74:
 454              	.L28:
 260:main.c        ****         if(*ptr == '\n') UART_1_PutChar('\r');
 455              		.loc 1 260 0
 456 000a 2378     		ldrb	r3, [r4]	@ zero_extendqisi2
 457 000c 0A2B     		cmp	r3, #10
ARM GAS  C:\Users\VILLEL~1\AppData\Local\Temp\cc1IxSQp.s 			page 14


 458 000e 02D1     		bne	.L27
 459              		.loc 1 260 0 is_stmt 0 discriminator 1
 460 0010 0D20     		movs	r0, #13
 461 0012 FFF7FEFF 		bl	UART_1_PutChar
 462              	.LVL75:
 463              	.L27:
 261:main.c        **** 		UART_1_PutChar(*ptr++);
 464              		.loc 1 261 0 is_stmt 1 discriminator 2
 465 0016 661C     		adds	r6, r4, #1
 466              	.LVL76:
 467 0018 2078     		ldrb	r0, [r4]	@ zero_extendqisi2
 468 001a FFF7FEFF 		bl	UART_1_PutChar
 469              	.LVL77:
 259:main.c        ****         if(*ptr == '\n') UART_1_PutChar('\r');
 470              		.loc 1 259 0 discriminator 2
 471 001e 0135     		adds	r5, r5, #1
 472              	.LVL78:
 473              		.loc 1 261 0 discriminator 2
 474 0020 3446     		mov	r4, r6
 475              	.LVL79:
 476              	.L26:
 259:main.c        ****         if(*ptr == '\n') UART_1_PutChar('\r');
 477              		.loc 1 259 0 discriminator 1
 478 0022 BD42     		cmp	r5, r7
 479 0024 F1DB     		blt	.L28
 262:main.c        **** 	}
 263:main.c        **** 	return len;
 264:main.c        **** }
 480              		.loc 1 264 0
 481 0026 3846     		mov	r0, r7
 482 0028 F8BD     		pop	{r3, r4, r5, r6, r7, pc}
 483              		.cfi_endproc
 484              	.LFE64:
 485              		.size	_write, .-_write
 486 002a 00BF     		.section	.text._read,"ax",%progbits
 487              		.align	2
 488              		.global	_read
 489              		.thumb
 490              		.thumb_func
 491              		.type	_read, %function
 492              	_read:
 493              	.LFB65:
 265:main.c        **** 
 266:main.c        **** int _read (int file, char *ptr, int count)
 267:main.c        **** {
 494              		.loc 1 267 0
 495              		.cfi_startproc
 496              		@ args = 0, pretend = 0, frame = 0
 497              		@ frame_needed = 0, uses_anonymous_args = 0
 498              	.LVL80:
 499 0000 F8B5     		push	{r3, r4, r5, r6, r7, lr}
 500              		.cfi_def_cfa_offset 24
 501              		.cfi_offset 3, -24
 502              		.cfi_offset 4, -20
 503              		.cfi_offset 5, -16
 504              		.cfi_offset 6, -12
 505              		.cfi_offset 7, -8
ARM GAS  C:\Users\VILLEL~1\AppData\Local\Temp\cc1IxSQp.s 			page 15


 506              		.cfi_offset 14, -4
 507 0002 0F46     		mov	r7, r1
 508 0004 1446     		mov	r4, r2
 509              	.LVL81:
 268:main.c        ****     int chs = 0;
 510              		.loc 1 268 0
 511 0006 0026     		movs	r6, #0
 269:main.c        ****     char ch;
 270:main.c        ****  
 271:main.c        ****     (void)file; /* Parameter is not used, suppress unused argument warning */
 272:main.c        ****     while(count > 0) {
 512              		.loc 1 272 0
 513 0008 12E0     		b	.L32
 514              	.LVL82:
 515              	.L35:
 273:main.c        ****         ch = UART_1_GetChar();
 516              		.loc 1 273 0
 517 000a FFF7FEFF 		bl	UART_1_GetChar
 518              	.LVL83:
 274:main.c        ****         if(ch != 0) {
 519              		.loc 1 274 0
 520 000e 0546     		mov	r5, r0
 521 0010 70B1     		cbz	r0, .L32
 275:main.c        ****             UART_1_PutChar(ch);
 522              		.loc 1 275 0
 523 0012 FFF7FEFF 		bl	UART_1_PutChar
 524              	.LVL84:
 276:main.c        ****             chs++;
 525              		.loc 1 276 0
 526 0016 0136     		adds	r6, r6, #1
 527              	.LVL85:
 277:main.c        ****             if(ch == '\r') {
 528              		.loc 1 277 0
 529 0018 0D2D     		cmp	r5, #13
 530 001a 03D1     		bne	.L33
 531              	.LVL86:
 278:main.c        ****                 ch = '\n';
 279:main.c        ****                 UART_1_PutChar(ch);
 532              		.loc 1 279 0
 533 001c 0A20     		movs	r0, #10
 534 001e FFF7FEFF 		bl	UART_1_PutChar
 535              	.LVL87:
 278:main.c        ****                 ch = '\n';
 536              		.loc 1 278 0
 537 0022 0A25     		movs	r5, #10
 538              	.LVL88:
 539              	.L33:
 280:main.c        ****             }
 281:main.c        ****             *ptr++ = ch;
 540              		.loc 1 281 0
 541 0024 7B1C     		adds	r3, r7, #1
 542              	.LVL89:
 543 0026 3D70     		strb	r5, [r7]
 282:main.c        ****             count--;
 544              		.loc 1 282 0
 545 0028 013C     		subs	r4, r4, #1
 546              	.LVL90:
ARM GAS  C:\Users\VILLEL~1\AppData\Local\Temp\cc1IxSQp.s 			page 16


 283:main.c        ****             if(ch == '\n') break;
 547              		.loc 1 283 0
 548 002a 0A2D     		cmp	r5, #10
 549 002c 02D0     		beq	.L34
 281:main.c        ****             count--;
 550              		.loc 1 281 0
 551 002e 1F46     		mov	r7, r3
 552              	.LVL91:
 553              	.L32:
 272:main.c        ****         ch = UART_1_GetChar();
 554              		.loc 1 272 0
 555 0030 002C     		cmp	r4, #0
 556 0032 EADC     		bgt	.L35
 557              	.LVL92:
 558              	.L34:
 284:main.c        ****         }
 285:main.c        ****     }
 286:main.c        ****     return chs;
 287:main.c        **** }
 559              		.loc 1 287 0
 560 0034 3046     		mov	r0, r6
 561 0036 F8BD     		pop	{r3, r4, r5, r6, r7, pc}
 562              		.cfi_endproc
 563              	.LFE65:
 564              		.size	_read, .-_read
 565              		.text
 566              	.Letext0:
 567              		.file 2 "c:\\program files (x86)\\cypress\\psoc creator\\4.0\\psoc creator\\import\\gnu\\arm\\4.9.
 568              		.file 3 "c:\\program files (x86)\\cypress\\psoc creator\\4.0\\psoc creator\\import\\gnu\\arm\\4.9.
 569              		.file 4 "Generated_Source\\PSoC5/cytypes.h"
 570              		.file 5 ".\\ZumoLibrary/Reflectance.h"
 571              		.file 6 "Generated_Source\\PSoC5/UART_1.h"
 572              		.file 7 "Generated_Source\\PSoC5/ADC_Battery.h"
 573              		.file 8 ".\\ZumoLibrary/Ultra.h"
 574              		.file 9 "Generated_Source\\PSoC5/sensor_isr.h"
 575              		.file 10 "Generated_Source\\PSoC5/IR_led.h"
 576              		.file 11 "Generated_Source\\PSoC5/BatteryLed.h"
 577              		.file 12 "Generated_Source\\PSoC5/CyLib.h"
 578              		.file 13 ".\\ZumoLibrary/IR.h"
 579              		.file 14 "Generated_Source\\PSoC5/SW1.h"
 580              		.file 15 "Generated_Source\\PSoC5/MotorDirLeft.h"
 581              		.file 16 "Generated_Source\\PSoC5/MotorDirRight.h"
 582              		.file 17 "Generated_Source\\PSoC5/core_cm3.h"